; Function Attrs: nounwind sspstrong uwtable
define internal fastcc void @generate_json_bignum(ptr noundef captures(none) %0, i64 noundef %1) unnamed_addr #0 {
  %3 = alloca i64, align 8
  %4 = alloca ptr, align 8
  %5 = load i64, ptr @i_to_s, align 8, !tbaa !6
  %6 = tail call i64 (i64, i64, i32, ...) @rb_funcall(i64 noundef %1, i64 noundef %5, i32 noundef 0) #22
  call void @llvm.lifetime.start.p0(i64 8, ptr nonnull %3)
  store i64 %6, ptr %3, align 8, !tbaa !6
  %7 = call ptr @rb_string_value_ptr(ptr noundef nonnull %3) #22
  %8 = load i64, ptr %3, align 8, !tbaa !6
  %9 = inttoptr i64 %8 to ptr
  %10 = getelementptr inbounds nuw i8, ptr %9, i64 16
  %11 = load i64, ptr %10, align 8, !tbaa !31
  call void @llvm.lifetime.start.p0(i64 8, ptr nonnull %4) #22
  store ptr %3, ptr %4, align 8, !tbaa !61
  call void asm sideeffect "", "*m,~{dirflag},~{fpsr},~{flags}"(ptr nonnull elementtype(ptr) %4) #22, !srcloc !63
  %12 = load ptr, ptr %4, align 8, !tbaa !61
  call void @llvm.lifetime.end.p0(i64 8, ptr nonnull %4) #22
  %13 = load volatile i64, ptr %12, align 8, !tbaa !6
  %.not.i.i = icmp eq i64 %11, 0
  br i1 %.not.i.i, label %fbuffer_append_str.exit, label %14

14:                                               ; preds = %2
  %15 = getelementptr inbounds nuw i8, ptr %0, i64 24
  %16 = load i64, ptr %15, align 8, !tbaa !47
  %17 = getelementptr inbounds nuw i8, ptr %0, i64 16
  %18 = load i64, ptr %17, align 8, !tbaa !56
  %19 = sub i64 %16, %18
  %20 = icmp ugt i64 %11, %19
  br i1 %20, label %21, label %ruby_nonempty_memcpy.exit.i.i, !prof !58

21:                                               ; preds = %14
  call fastcc void @fbuffer_do_inc_capa(ptr noundef nonnull %0, i64 noundef range(i64 1, 0) %11)
  %.pre.i.i = load i64, ptr %17, align 8, !tbaa !56
  br label %ruby_nonempty_memcpy.exit.i.i

ruby_nonempty_memcpy.exit.i.i:                    ; preds = %21, %14
  %22 = phi i64 [ %.pre.i.i, %21 ], [ %18, %14 ]
  %23 = getelementptr inbounds nuw i8, ptr %0, i64 32
  %24 = load ptr, ptr %23, align 8, !tbaa !46
  %25 = getelementptr inbounds nuw i8, ptr %24, i64 %22
  call void @llvm.memcpy.p0.p0.i64(ptr noundef nonnull align 1 %25, ptr noundef nonnull readonly align 1 %7, i64 noundef range(i64 1, 0) %11, i1 noundef false) #22
  %26 = load i64, ptr %17, align 8, !tbaa !56
  %27 = add i64 %26, %11
  store i64 %27, ptr %17, align 8, !tbaa !56
  br label %fbuffer_append_str.exit

fbuffer_append_str.exit:                          ; preds = %2, %ruby_nonempty_memcpy.exit.i.i
  call void @llvm.lifetime.end.p0(i64 8, ptr nonnull %3)
  ret void
}